; Function Attrs: mustprogress uwtable
define void @_ZN15ProfileTreeView7clickedERK11QModelIndex(ptr nocapture noundef nonnull readnone align 8 dereferenceable(48) %0, ptr noundef nonnull align 8 dereferenceable(24) %1) unnamed_addr #0 align 2 personality ptr @__gxx_personality_v0 {
  %3 = alloca %class.QVariant, align 8
  %4 = alloca %class.QString, align 8
  %5 = alloca %class.QString, align 8
  %6 = alloca %class.QVariant, align 8
  %7 = alloca %class.QUrl, align 8
  %8 = load i32, ptr %1, align 8
  %9 = icmp sgt i32 %8, -1
  %10 = getelementptr inbounds i8, ptr %1, i64 4
  %11 = load i32, ptr %10, align 4
  %12 = icmp sgt i32 %11, -1
  %or.cond.i = select i1 %9, i1 %12, i1 false
  %13 = getelementptr inbounds i8, ptr %1, i64 16
  %14 = load ptr, ptr %13, align 8
  %15 = icmp ne ptr %14, null
  %or.cond = select i1 %or.cond.i, i1 %15, i1 false
  br i1 %or.cond, label %_ZNK11QModelIndex4dataEi.exit, label %_ZN7QStringD2Ev.exit16

_ZNK11QModelIndex4dataEi.exit:                    ; preds = %2
  %16 = load ptr, ptr %14, align 8, !noalias !18
  %17 = getelementptr inbounds i8, ptr %16, i64 144
  %18 = load ptr, ptr %17, align 8, !noalias !18
  call void %18(ptr dead_on_unwind nonnull writable sret(%class.QVariant) align 8 %3, ptr noundef nonnull align 8 dereferenceable(16) %14, ptr noundef nonnull align 8 dereferenceable(24) %1, i32 noundef 262)
  %19 = invoke noundef zeroext i1 @_ZNK8QVariant6toBoolEv(ptr noundef nonnull align 8 dereferenceable(32) %3)
          to label %20 unwind label %42

20:                                               ; preds = %_ZNK11QModelIndex4dataEi.exit
  call void @_ZN8QVariantD1Ev(ptr noundef nonnull align 8 dereferenceable(32) %3) #10
  br i1 %19, label %21, label %_ZN7QStringD2Ev.exit16

21:                                               ; preds = %20
  call void @llvm.experimental.noalias.scope.decl(metadata !21)
  %22 = load ptr, ptr %13, align 8, !noalias !21
  %.not.i11 = icmp eq ptr %22, null
  br i1 %.not.i11, label %27, label %23

23:                                               ; preds = %21
  %24 = load ptr, ptr %22, align 8, !noalias !21
  %25 = getelementptr inbounds i8, ptr %24, i64 144
  %26 = load ptr, ptr %25, align 8, !noalias !21
  call void %26(ptr dead_on_unwind nonnull writable sret(%class.QVariant) align 8 %6, ptr noundef nonnull align 8 dereferenceable(16) %22, ptr noundef nonnull align 8 dereferenceable(24) %1, i32 noundef 0)
  br label %_ZNK11QModelIndex4dataEi.exit12

27:                                               ; preds = %21
  call void @llvm.memset.p0.i64(ptr noundef nonnull align 8 dereferenceable(24) %6, i8 0, i64 24, i1 false), !alias.scope !21
  %28 = getelementptr inbounds i8, ptr %6, i64 24
  store i64 2, ptr %28, align 8, !alias.scope !21
  br label %_ZNK11QModelIndex4dataEi.exit12

_ZNK11QModelIndex4dataEi.exit12:                  ; preds = %23, %27
  invoke void @_ZNK8QVariant8toStringEv(ptr dead_on_unwind nonnull writable sret(%class.QString) align 8 %5, ptr noundef nonnull align 8 dereferenceable(32) %6)
          to label %29 unwind label %44

29:                                               ; preds = %_ZNK11QModelIndex4dataEi.exit12
  invoke void @_ZN4QDir18toNativeSeparatorsERK7QString(ptr dead_on_unwind nonnull writable sret(%class.QString) align 8 %4, ptr noundef nonnull align 8 dereferenceable(24) %5)
          to label %30 unwind label %46

30:                                               ; preds = %29
  %31 = load ptr, ptr %5, align 8
  %.not.i.i.i = icmp eq ptr %31, null
  br i1 %.not.i.i.i, label %_ZN7QStringD2Ev.exit, label %_ZN17QArrayDataPointerIDsE5derefEv.exit.i.i

_ZN17QArrayDataPointerIDsE5derefEv.exit.i.i:      ; preds = %30
  %32 = atomicrmw sub ptr %31, i32 1 seq_cst, align 4
  %.not.i.i = icmp eq i32 %32, 1
  br i1 %.not.i.i, label %33, label %_ZN7QStringD2Ev.exit

33:                                               ; preds = %_ZN17QArrayDataPointerIDsE5derefEv.exit.i.i
  %34 = load ptr, ptr %5, align 8
  call void @_ZN10QArrayData10deallocateEPS_xx(ptr noundef %34, i64 noundef 2, i64 noundef 8) #10
  br label %_ZN7QStringD2Ev.exit

_ZN7QStringD2Ev.exit:                             ; preds = %30, %_ZN17QArrayDataPointerIDsE5derefEv.exit.i.i, %33
  call void @_ZN8QVariantD1Ev(ptr noundef nonnull align 8 dereferenceable(32) %6) #10
  invoke void @_ZN4QUrl13fromLocalFileERK7QString(ptr dead_on_unwind nonnull writable sret(%class.QUrl) align 8 %7, ptr noundef nonnull align 8 dereferenceable(24) %4)
          to label %35 unwind label %52

35:                                               ; preds = %_ZN7QStringD2Ev.exit
  %36 = invoke noundef zeroext i1 @_ZN16QDesktopServices7openUrlERK4QUrl(ptr noundef nonnull align 8 dereferenceable(8) %7)
          to label %37 unwind label %54

37:                                               ; preds = %35
  call void @_ZN4QUrlD1Ev(ptr noundef nonnull align 8 dereferenceable(8) %7) #10
  %38 = load ptr, ptr %4, align 8
  %.not.i.i.i13 = icmp eq ptr %38, null
  br i1 %.not.i.i.i13, label %_ZN7QStringD2Ev.exit16, label %_ZN17QArrayDataPointerIDsE5derefEv.exit.i.i14

_ZN17QArrayDataPointerIDsE5derefEv.exit.i.i14:    ; preds = %37
  %39 = atomicrmw sub ptr %38, i32 1 seq_cst, align 4
  %.not.i.i15 = icmp eq i32 %39, 1
  br i1 %.not.i.i15, label %40, label %_ZN7QStringD2Ev.exit16

40:                                               ; preds = %_ZN17QArrayDataPointerIDsE5derefEv.exit.i.i14
  %41 = load ptr, ptr %4, align 8
  call void @_ZN10QArrayData10deallocateEPS_xx(ptr noundef %41, i64 noundef 2, i64 noundef 8) #10
  br label %_ZN7QStringD2Ev.exit16

42:                                               ; preds = %_ZNK11QModelIndex4dataEi.exit
  %43 = landingpad { ptr, i32 }
          cleanup
  call void @_ZN8QVariantD1Ev(ptr noundef nonnull align 8 dereferenceable(32) %3) #10
  br label %_ZN7QStringD2Ev.exit24

44:                                               ; preds = %_ZNK11QModelIndex4dataEi.exit12
  %45 = landingpad { ptr, i32 }
          cleanup
  br label %_ZN7QStringD2Ev.exit20

46:                                               ; preds = %29
  %47 = landingpad { ptr, i32 }
          cleanup
  %48 = load ptr, ptr %5, align 8
  %.not.i.i.i17 = icmp eq ptr %48, null
  br i1 %.not.i.i.i17, label %_ZN7QStringD2Ev.exit20, label %_ZN17QArrayDataPointerIDsE5derefEv.exit.i.i18

_ZN17QArrayDataPointerIDsE5derefEv.exit.i.i18:    ; preds = %46
  %49 = atomicrmw sub ptr %48, i32 1 seq_cst, align 4
  %.not.i.i19 = icmp eq i32 %49, 1
  br i1 %.not.i.i19, label %50, label %_ZN7QStringD2Ev.exit20

50:                                               ; preds = %_ZN17QArrayDataPointerIDsE5derefEv.exit.i.i18
  %51 = load ptr, ptr %5, align 8
  call void @_ZN10QArrayData10deallocateEPS_xx(ptr noundef %51, i64 noundef 2, i64 noundef 8) #10
  br label %_ZN7QStringD2Ev.exit20

_ZN7QStringD2Ev.exit20:                           ; preds = %50, %_ZN17QArrayDataPointerIDsE5derefEv.exit.i.i18, %46, %44
  %.pn = phi { ptr, i32 } [ %45, %44 ], [ %47, %46 ], [ %47, %_ZN17QArrayDataPointerIDsE5derefEv.exit.i.i18 ], [ %47, %50 ]
  call void @_ZN8QVariantD1Ev(ptr noundef nonnull align 8 dereferenceable(32) %6) #10
  br label %_ZN7QStringD2Ev.exit24

52:                                               ; preds = %_ZN7QStringD2Ev.exit
  %53 = landingpad { ptr, i32 }
          cleanup
  br label %56

54:                                               ; preds = %35
  %55 = landingpad { ptr, i32 }
          cleanup
  call void @_ZN4QUrlD1Ev(ptr noundef nonnull align 8 dereferenceable(8) %7) #10
  br label %56

56:                                               ; preds = %54, %52
  %.pn8 = phi { ptr, i32 } [ %55, %54 ], [ %53, %52 ]
  %57 = load ptr, ptr %4, align 8
  %.not.i.i.i21 = icmp eq ptr %57, null
  br i1 %.not.i.i.i21, label %_ZN7QStringD2Ev.exit24, label %_ZN17QArrayDataPointerIDsE5derefEv.exit.i.i22

_ZN17QArrayDataPointerIDsE5derefEv.exit.i.i22:    ; preds = %56
  %58 = atomicrmw sub ptr %57, i32 1 seq_cst, align 4
  %.not.i.i23 = icmp eq i32 %58, 1
  br i1 %.not.i.i23, label %59, label %_ZN7QStringD2Ev.exit24

59:                                               ; preds = %_ZN17QArrayDataPointerIDsE5derefEv.exit.i.i22
  %60 = load ptr, ptr %4, align 8
  call void @_ZN10QArrayData10deallocateEPS_xx(ptr noundef %60, i64 noundef 2, i64 noundef 8) #10
  br label %_ZN7QStringD2Ev.exit24

_ZN7QStringD2Ev.exit16:                           ; preds = %2, %40, %_ZN17QArrayDataPointerIDsE5derefEv.exit.i.i14, %37, %20
  ret void

_ZN7QStringD2Ev.exit24:                           ; preds = %59, %_ZN17QArrayDataPointerIDsE5derefEv.exit.i.i22, %56, %_ZN7QStringD2Ev.exit20, %42
  %.pn8.pn = phi { ptr, i32 } [ %.pn, %_ZN7QStringD2Ev.exit20 ], [ %43, %42 ], [ %.pn8, %56 ], [ %.pn8, %_ZN17QArrayDataPointerIDsE5derefEv.exit.i.i22 ], [ %.pn8, %59 ]
  resume { ptr, i32 } %.pn8.pn
}